target datalayout = "e-m:e-p270:32:32-p271:32:32-p272:64:64-i64:64-i128:128-f80:128-n8:16:32:64-S128"
target triple = "x86_64-pc-linux-gnu"

@.str.4 = private unnamed_addr constant [2 x i8] c"\0A\00", align 1
@.str.5 = private unnamed_addr constant [41 x i8] c"    wrapcell -name <format> [selection]\0A\00", align 1
@.str.6 = private unnamed_addr constant [79 x i8] c"This command wraps the selected cells individually into modules. The name for\0A\00", align 1
@.str.7 = private unnamed_addr constant [75 x i8] c"each wrapper module is derived from the template <format> by substituting\0A\00", align 1
@.str.8 = private unnamed_addr constant [78 x i8] c"parameter values as specified in curly brackets. If the named module already\0A\00", align 1
@.str.9 = private unnamed_addr constant [23 x i8] c"exists, it is reused.\0A\00", align 1
@.str.10 = private unnamed_addr constant [78 x i8] c"If the template contains the special string '{%%unused}', the command tracks\0A\00", align 1
@.str.11 = private unnamed_addr constant [80 x i8] c"unused output ports -- specialized wrapper modules will be generated per every\0A\00", align 1
@.str.12 = private unnamed_addr constant [69 x i8] c"distinct set of unused port bits as appearing on any selected cell.\0A\00", align 1
@.str.13 = private unnamed_addr constant [31 x i8] c"    -setattr <attribute-name>\0A\00", align 1
@.str.14 = private unnamed_addr constant [72 x i8] c"        set the given boolean attribute on each created wrapper module\0A\00", align 1
@.str.15 = private unnamed_addr constant [43 x i8] c"    -formatattr <attribute-name> <format>\0A\00", align 1
@.str.16 = private unnamed_addr constant [78 x i8] c"        set a string attribute on the created wrapper module by substituting\0A\00", align 1
@.str.17 = private unnamed_addr constant [40 x i8] c"        parameter values into <format>\0A\00", align 1
@.str.18 = private unnamed_addr constant [68 x i8] c"Currently this command only supports wrapping internal cell types.\0A\00", align 1

; Function Attrs: mustprogress uwtable
define internal void @_ZN12_GLOBAL__N_112WrapcellPass4helpEv(ptr noundef nonnull align 8 dereferenceable(104) %0) unnamed_addr #4 align 2 {
  %2 = alloca ptr, align 8
  store ptr %0, ptr %2, align 8, !tbaa !6
  call void (ptr, ...) @_ZN5Yosys3logEPKcz(ptr noundef @.str.4)
  call void (ptr, ...) @_ZN5Yosys3logEPKcz(ptr noundef @.str.5)
  call void (ptr, ...) @_ZN5Yosys3logEPKcz(ptr noundef @.str.4)
  call void (ptr, ...) @_ZN5Yosys3logEPKcz(ptr noundef @.str.6)
  call void (ptr, ...) @_ZN5Yosys3logEPKcz(ptr noundef @.str.7)
  call void (ptr, ...) @_ZN5Yosys3logEPKcz(ptr noundef @.str.8)
  call void (ptr, ...) @_ZN5Yosys3logEPKcz(ptr noundef @.str.9)
  call void (ptr, ...) @_ZN5Yosys3logEPKcz(ptr noundef @.str.4)
  call void (ptr, ...) @_ZN5Yosys3logEPKcz(ptr noundef @.str.10)
  call void (ptr, ...) @_ZN5Yosys3logEPKcz(ptr noundef @.str.11)
  call void (ptr, ...) @_ZN5Yosys3logEPKcz(ptr noundef @.str.12)
  call void (ptr, ...) @_ZN5Yosys3logEPKcz(ptr noundef @.str.4)
  call void (ptr, ...) @_ZN5Yosys3logEPKcz(ptr noundef @.str.13)
  call void (ptr, ...) @_ZN5Yosys3logEPKcz(ptr noundef @.str.14)
  call void (ptr, ...) @_ZN5Yosys3logEPKcz(ptr noundef @.str.4)
  call void (ptr, ...) @_ZN5Yosys3logEPKcz(ptr noundef @.str.15)
  call void (ptr, ...) @_ZN5Yosys3logEPKcz(ptr noundef @.str.16)
  call void (ptr, ...) @_ZN5Yosys3logEPKcz(ptr noundef @.str.17)
  call void (ptr, ...) @_ZN5Yosys3logEPKcz(ptr noundef @.str.4)
  call void (ptr, ...) @_ZN5Yosys3logEPKcz(ptr noundef @.str.18)
  call void (ptr, ...) @_ZN5Yosys3logEPKcz(ptr noundef @.str.4)
  ret void
}